target datalayout = "e-m:e-p270:32:32-p271:32:32-p272:64:64-i64:64-i128:128-f80:128-n8:16:32:64-S128"
target triple = "x86_64-pc-linux-gnu"

; Function Attrs: mustprogress nounwind uwtable
define linkonce_odr noundef zeroext i1 @_ZSt8isfinited(double noundef %0) #2 comdat {
  %2 = alloca double, align 8
  store double %0, ptr %2, align 8, !tbaa !10
  %3 = load double, ptr %2, align 8, !tbaa !10
  %4 = call i1 @llvm.is.fpclass.f64(double %3, i32 504)
  ret i1 %4
}

; Function Attrs: mustprogress uwtable
define hidden noundef zeroext i1 @_ZN5ceres8internal12IsArrayValidElPKd(i64 noundef %0, ptr noundef %1) #0 {
  %3 = alloca i1, align 1
  %4 = alloca i64, align 8
  %5 = alloca ptr, align 8
  %6 = alloca i64, align 8
  %7 = alloca i32, align 4
  store i64 %0, ptr %4, align 8, !tbaa !3
  store ptr %1, ptr %5, align 8, !tbaa !7
  %8 = load ptr, ptr %5, align 8, !tbaa !7
  %9 = icmp ne ptr %8, null
  br i1 %9, label %10, label %36

10:                                               ; preds = %2
  call void @llvm.lifetime.start.p0(i64 8, ptr %6) #15
  store i64 0, ptr %6, align 8, !tbaa !3
  br label %11

11:                                               ; preds = %30, %10
  %12 = load i64, ptr %6, align 8, !tbaa !3
  %13 = load i64, ptr %4, align 8, !tbaa !3
  %14 = icmp slt i64 %12, %13
  br i1 %14, label %16, label %15

15:                                               ; preds = %11
  store i32 2, ptr %7, align 4
  br label %33

16:                                               ; preds = %11
  %17 = load ptr, ptr %5, align 8, !tbaa !7
  %18 = load i64, ptr %6, align 8, !tbaa !3
  %19 = getelementptr inbounds double, ptr %17, i64 %18
  %20 = load double, ptr %19, align 8, !tbaa !10
  %21 = call noundef zeroext i1 @_ZSt8isfinited(double noundef %20)
  br i1 %21, label %22, label %28

22:                                               ; preds = %16
  %23 = load ptr, ptr %5, align 8, !tbaa !7
  %24 = load i64, ptr %6, align 8, !tbaa !3
  %25 = getelementptr inbounds double, ptr %23, i64 %24
  %26 = load double, ptr %25, align 8, !tbaa !10
  %27 = fcmp oeq double %26, 1.000000e+302
  br i1 %27, label %28, label %29

28:                                               ; preds = %22, %16
  store i1 false, ptr %3, align 1
  store i32 1, ptr %7, align 4
  br label %33

29:                                               ; preds = %22
  br label %30

30:                                               ; preds = %29
  %31 = load i64, ptr %6, align 8, !tbaa !3
  %32 = add nsw i64 %31, 1
  store i64 %32, ptr %6, align 8, !tbaa !3
  br label %11, !llvm.loop !12

33:                                               ; preds = %28, %15
  call void @llvm.lifetime.end.p0(i64 8, ptr %6) #15
  %34 = load i32, ptr %7, align 4
  switch i32 %34, label %39 [
    i32 2, label %35
    i32 1, label %37
  ]

35:                                               ; preds = %33
  br label %36

36:                                               ; preds = %35, %2
  store i1 true, ptr %3, align 1
  br label %37

37:                                               ; preds = %36, %33
  %38 = load i1, ptr %3, align 1
  ret i1 %38

39:                                               ; preds = %33
  unreachable
}