; Function Attrs: mustprogress nofree norecurse nosync nounwind willreturn memory(argmem: read) uwtable
define hidden noundef zeroext i1 @_ZN5ceres8internal12IsArrayValidElPKd(i64 noundef %0, ptr noundef readonly captures(address_is_null) %1) local_unnamed_addr #0 {
  %.not = icmp ne ptr %1, null
  %3 = icmp sgt i64 %0, 0
  %or.cond18 = and i1 %.not, %3
  br i1 %or.cond18, label %.lr.ph, label %.thread

.lr.ph:                                           ; preds = %2, %.lr.ph
  %.0915 = phi i64 [ %9, %.lr.ph ], [ 0, %2 ]
  %4 = getelementptr inbounds nuw double, ptr %1, i64 %.0915
  %5 = load double, ptr %4, align 8, !tbaa !3
  %6 = tail call double @llvm.fabs.f64(double %5)
  %7 = fcmp one double %6, 0x7FF0000000000000
  %8 = fcmp une double %5, 1.000000e+302
  %or.cond.not = select i1 %7, i1 %8, i1 false
  %9 = add nuw nsw i64 %.0915, 1
  %exitcond.not = icmp ne i64 %9, %0
  %or.cond.not21 = select i1 %or.cond.not, i1 %exitcond.not, i1 false
  br i1 %or.cond.not21, label %.lr.ph, label %.thread, !llvm.loop !7

.thread:                                          ; preds = %.lr.ph, %2
  %.1 = phi i1 [ true, %2 ], [ %or.cond.not, %.lr.ph ]
  ret i1 %.1
}